target datalayout = "e-m:e-p270:32:32-p271:32:32-p272:64:64-i64:64-i128:128-f80:128-n8:16:32:64-S128"
target triple = "x86_64-pc-linux-gnu"

%class.dtPathCorridor = type { [3 x float], [3 x float], ptr, i32, i32 }

@.str.1 = private unnamed_addr constant [153 x i8] c"generated/home/dtcxzyw/WorkSpace/Projects/compilers/llvm-opt-benchmark/bench/recastnavigation/recastnavigation/DetourCrowd/Source/DetourPathCorridor.cpp\00", align 1
@.str.2 = private unnamed_addr constant [8 x i8] c"!m_path\00", align 1

; Function Attrs: mustprogress uwtable
define noundef zeroext i1 @_ZN14dtPathCorridor4initEi(ptr noundef nonnull align 8 dereferenceable(40) %0, i32 noundef %1) #0 align 2 {
  %3 = alloca i1, align 1
  %4 = alloca ptr, align 8
  %5 = alloca i32, align 4
  %6 = alloca ptr, align 8
  store ptr %0, ptr %4, align 8
  store i32 %1, ptr %5, align 4
  %7 = load ptr, ptr %4, align 8
  %8 = call noundef ptr @_Z21dtAssertFailGetCustomv()
  store ptr %8, ptr %6, align 8
  %9 = load ptr, ptr %6, align 8
  %10 = icmp eq ptr %9, null
  br i1 %10, label %11, label %12

11:                                               ; preds = %2
  br label %19

12:                                               ; preds = %2
  %13 = getelementptr inbounds %class.dtPathCorridor, ptr %7, i32 0, i32 2
  %14 = load ptr, ptr %13, align 8
  %15 = icmp ne ptr %14, null
  br i1 %15, label %16, label %18

16:                                               ; preds = %12
  %17 = load ptr, ptr %6, align 8
  call void %17(ptr noundef @.str.2, ptr noundef @.str.1, i32 noundef 217)
  br label %18

18:                                               ; preds = %16, %12
  br label %19

19:                                               ; preds = %18, %11
  %20 = load i32, ptr %5, align 4
  %21 = sext i32 %20 to i64
  %22 = mul i64 4, %21
  %23 = call noundef ptr @_Z7dtAllocm11dtAllocHint(i64 noundef %22, i32 noundef 0)
  %24 = getelementptr inbounds %class.dtPathCorridor, ptr %7, i32 0, i32 2
  store ptr %23, ptr %24, align 8
  %25 = getelementptr inbounds %class.dtPathCorridor, ptr %7, i32 0, i32 2
  %26 = load ptr, ptr %25, align 8
  %27 = icmp ne ptr %26, null
  br i1 %27, label %29, label %28

28:                                               ; preds = %19
  store i1 false, ptr %3, align 1
  br label %33

29:                                               ; preds = %19
  %30 = getelementptr inbounds %class.dtPathCorridor, ptr %7, i32 0, i32 3
  store i32 0, ptr %30, align 8
  %31 = load i32, ptr %5, align 4
  %32 = getelementptr inbounds %class.dtPathCorridor, ptr %7, i32 0, i32 4
  store i32 %31, ptr %32, align 4
  store i1 true, ptr %3, align 1
  br label %33

33:                                               ; preds = %29, %28
  %34 = load i1, ptr %3, align 1
  ret i1 %34
}