; Function Attrs: mustprogress uwtable
define noundef zeroext i1 @_ZN14dtPathCorridor4initEi(ptr noundef nonnull align 8 captures(none) dereferenceable(40) %0, i32 noundef %1) local_unnamed_addr #2 align 2 {
  %3 = tail call noundef ptr @_Z21dtAssertFailGetCustomv()
  %4 = icmp eq ptr %3, null
  %5 = getelementptr inbounds nuw i8, ptr %0, i64 24
  %6 = load ptr, ptr %5, align 8
  %.not = icmp eq ptr %6, null
  %or.cond = select i1 %4, i1 true, i1 %.not
  br i1 %or.cond, label %8, label %7

7:                                                ; preds = %2
  tail call void %3(ptr noundef nonnull @.str.2, ptr noundef nonnull @.str.1, i32 noundef 217)
  br label %8

8:                                                ; preds = %7, %2
  %9 = sext i32 %1 to i64
  %10 = shl nsw i64 %9, 2
  %11 = tail call noundef ptr @_Z7dtAllocm11dtAllocHint(i64 noundef %10, i32 noundef 0)
  store ptr %11, ptr %5, align 8
  %.not6 = icmp ne ptr %11, null
  br i1 %.not6, label %12, label %15

12:                                               ; preds = %8
  %13 = getelementptr inbounds nuw i8, ptr %0, i64 32
  store i32 0, ptr %13, align 8
  %14 = getelementptr inbounds nuw i8, ptr %0, i64 36
  store i32 %1, ptr %14, align 4
  br label %15

15:                                               ; preds = %8, %12
  ret i1 %.not6
}